; Function Attrs: nounwind sspstrong uwtable
define internal noundef i64 @thread_register_callback(i64 %0, i64 noundef %1) #0 {
  %3 = and i64 %1, -5
  %4 = icmp ne i64 %3, 0
  %5 = zext i1 %4 to i64
  %6 = inttoptr i64 %5 to ptr
  %7 = tail call ptr @rb_internal_thread_add_event_hook(ptr noundef nonnull @ex_callback, i32 noundef 31, ptr noundef %6) #5
  store ptr %7, ptr @single_hook, align 8, !tbaa !10
  ret i64 4
}